; Function Attrs: mustprogress nounwind uwtable
define hidden void @_ZN12ZDriverMajor10run_threadEv(ptr noundef nonnull align 8 dereferenceable(1264) %0) unnamed_addr #1 align 2 {
  %2 = alloca %class.ZDriverRequest, align 8
  %3 = getelementptr inbounds i8, ptr %0, i64 928
  %4 = tail call { i64, i32 } @_ZN11ZDriverPort7receiveEv(ptr noundef nonnull align 8 dereferenceable(136) %3) #13
  %.fca.0.extract5 = extractvalue { i64, i32 } %4, 0
  %.fca.1.extract6 = extractvalue { i64, i32 } %4, 1
  store i64 %.fca.0.extract5, ptr %2, align 8
  %.sroa.2.0..sroa_idx = getelementptr inbounds i8, ptr %2, i64 8
  store i32 %.fca.1.extract6, ptr %.sroa.2.0..sroa_idx, align 8
  %5 = load ptr, ptr @_ZN7ZDriver5_lockE, align 8
  %6 = tail call i32 @pthread_mutex_lock(ptr noundef nonnull %5) #13
  tail call void @_ZN11ZBreakpoint12at_before_gcEv() #13
  %7 = load volatile i8, ptr @_ZN6ZAbort13_should_abortE, align 1
  %8 = trunc i8 %7 to i1
  br i1 %8, label %._crit_edge, label %.lr.ph

.lr.ph:                                           ; preds = %1, %19
  %9 = call noundef i32 @_ZNK14ZDriverRequest5causeEv(ptr noundef nonnull align 4 dereferenceable(12) %2) #13
  switch i32 %9, label %10 [
    i32 9, label %_ZL28should_clear_soft_referencesN7GCCause5CauseE.exit
    i32 17, label %_ZL28should_clear_soft_referencesN7GCCause5CauseE.exit
    i32 31, label %_ZL28should_clear_soft_referencesN7GCCause5CauseE.exit
    i32 7, label %13
    i32 6, label %13
    i32 10, label %13
    i32 23, label %13
    i32 0, label %13
    i32 1, label %13
    i32 4, label %13
    i32 28, label %13
    i32 29, label %13
    i32 30, label %13
    i32 32, label %13
    i32 16, label %13
    i32 14, label %13
    i32 15, label %13
  ]

10:                                               ; preds = %.lr.ph
  %11 = load ptr, ptr @g_assert_poison, align 8
  store i8 88, ptr %11, align 1
  %12 = call noundef ptr @_ZN7GCCause9to_stringENS_5CauseE(i32 noundef %9) #13
  call void (i32, ptr, i32, ptr, ...) @_Z12report_fatal11VMErrorTypePKciS1_z(i32 noundef -536870912, ptr noundef nonnull @.str.8, i32 noundef 258, ptr noundef nonnull @.str.9, ptr noundef %12) #14
  unreachable

13:                                               ; preds = %.lr.ph, %.lr.ph, %.lr.ph, %.lr.ph, %.lr.ph, %.lr.ph, %.lr.ph, %.lr.ph, %.lr.ph, %.lr.ph, %.lr.ph, %.lr.ph, %.lr.ph, %.lr.ph
  %14 = load ptr, ptr @_ZN5ZHeap5_heapE, align 8
  %15 = call noundef zeroext i1 @_ZNK14ZPageAllocator25is_alloc_stalling_for_oldEv(ptr noundef nonnull align 8 dereferenceable(609) %14) #13
  br label %_ZL28should_clear_soft_referencesN7GCCause5CauseE.exit

_ZL28should_clear_soft_referencesN7GCCause5CauseE.exit: ; preds = %.lr.ph, %.lr.ph, %.lr.ph, %13
  %.0.i = phi i1 [ true, %.lr.ph ], [ true, %.lr.ph ], [ true, %.lr.ph ], [ %15, %13 ]
  %16 = load ptr, ptr @_ZN11ZGeneration4_oldE, align 8
  call void @_ZN14ZGenerationOld25set_soft_reference_policyEb(ptr noundef nonnull align 64 dereferenceable(6720) %16, i1 noundef zeroext %.0.i) #13
  call void @_ZN12ZDriverMajor2gcERK14ZDriverRequest(ptr noundef nonnull align 8 dereferenceable(1264) %0, ptr noundef nonnull align 4 dereferenceable(12) %2)
  %17 = load volatile i8, ptr @_ZN6ZAbort13_should_abortE, align 1
  %18 = trunc i8 %17 to i1
  br i1 %18, label %._crit_edge, label %19

19:                                               ; preds = %_ZL28should_clear_soft_referencesN7GCCause5CauseE.exit
  call void @_ZN11ZDriverPort3ackEv(ptr noundef nonnull align 8 dereferenceable(136) %3) #13
  %20 = load ptr, ptr @_ZN5ZHeap5_heapE, align 8
  call void @_ZN14ZPageAllocator29handle_alloc_stalling_for_oldEb(ptr noundef nonnull align 8 dereferenceable(609) %20, i1 noundef zeroext %.0.i) #13
  call void @_ZN11ZBreakpoint11at_after_gcEv() #13
  %21 = load ptr, ptr @_ZN7ZDriver5_lockE, align 8
  %22 = call i32 @pthread_mutex_unlock(ptr noundef nonnull %21) #13
  %23 = call { i64, i32 } @_ZN11ZDriverPort7receiveEv(ptr noundef nonnull align 8 dereferenceable(136) %3) #13
  %.fca.0.extract = extractvalue { i64, i32 } %23, 0
  %.fca.1.extract = extractvalue { i64, i32 } %23, 1
  store i64 %.fca.0.extract, ptr %2, align 8
  store i32 %.fca.1.extract, ptr %.sroa.2.0..sroa_idx, align 8
  %24 = load ptr, ptr @_ZN7ZDriver5_lockE, align 8
  %25 = call i32 @pthread_mutex_lock(ptr noundef nonnull %24) #13
  call void @_ZN11ZBreakpoint12at_before_gcEv() #13
  %26 = load volatile i8, ptr @_ZN6ZAbort13_should_abortE, align 1
  %27 = trunc i8 %26 to i1
  br i1 %27, label %._crit_edge, label %.lr.ph

._crit_edge:                                      ; preds = %_ZL28should_clear_soft_referencesN7GCCause5CauseE.exit, %19, %1
  %28 = load ptr, ptr @_ZN7ZDriver5_lockE, align 8
  %29 = call i32 @pthread_mutex_unlock(ptr noundef nonnull %28) #13
  ret void
}